
image:     file format elf32-lm32

Sections:
Idx Name          Size      VMA       LMA       File off  Algn
  0 .text         00000520  00000000  00000000  00000054  2**2
                  CONTENTS, ALLOC, LOAD, CODE
  1 .rodata       00000004  00000520  00000520  00000574  2**2
                  CONTENTS, ALLOC, LOAD, READONLY, DATA
  2 .data         00000014  00000524  00000524  00000578  2**2
                  CONTENTS, ALLOC, LOAD, DATA
  3 .bss          00000084  00000538  00000538  0000058c  2**2
                  ALLOC
  4 .debug_abbrev 00000221  00000000  00000000  0000058c  2**0
                  CONTENTS, READONLY, DEBUGGING
  5 .debug_info   00000685  00000000  00000000  000007ad  2**0
                  CONTENTS, READONLY, DEBUGGING
  6 .debug_line   0000038f  00000000  00000000  00000e32  2**0
                  CONTENTS, READONLY, DEBUGGING
  7 .debug_frame  00000160  00000000  00000000  000011c4  2**2
                  CONTENTS, READONLY, DEBUGGING
  8 .debug_loc    00000196  00000000  00000000  00001324  2**0
                  CONTENTS, READONLY, DEBUGGING
  9 .debug_pubnames 00000194  00000000  00000000  000014ba  2**0
                  CONTENTS, READONLY, DEBUGGING
 10 .debug_pubtypes 00000099  00000000  00000000  0000164e  2**0
                  CONTENTS, READONLY, DEBUGGING
 11 .debug_aranges 00000040  00000000  00000000  000016e7  2**0
                  CONTENTS, READONLY, DEBUGGING
 12 .debug_str    00000214  00000000  00000000  00001727  2**0
                  CONTENTS, READONLY, DEBUGGING
 13 .comment      00000011  00000000  00000000  0000193b  2**0
                  CONTENTS, READONLY
 14 .debug_ranges 00000018  00000000  00000000  0000194c  2**0
                  CONTENTS, READONLY, DEBUGGING

Disassembly of section .text:

00000000 <_ftext>:
   0:	98 00 00 00 	xor r0,r0,r0
   4:	d0 00 00 00 	wcsr IE,r0
   8:	78 01 00 00 	mvhi r1,0x0
   c:	38 21 00 00 	ori r1,r1,0x0
  10:	d0 e1 00 00 	wcsr EBA,r1
  14:	f8 00 00 3b 	calli 100 <_crt0>
  18:	34 00 00 00 	nop
  1c:	34 00 00 00 	nop

00000020 <_breakpoint_handler>:
  20:	34 00 00 00 	nop
  24:	34 00 00 00 	nop
  28:	34 00 00 00 	nop
  2c:	34 00 00 00 	nop
  30:	34 00 00 00 	nop
  34:	34 00 00 00 	nop
  38:	34 00 00 00 	nop
  3c:	34 00 00 00 	nop

00000040 <_ibuserror_handler>:
  40:	34 00 00 00 	nop
  44:	34 00 00 00 	nop
  48:	34 00 00 00 	nop
  4c:	34 00 00 00 	nop
  50:	34 00 00 00 	nop
  54:	34 00 00 00 	nop
  58:	34 00 00 00 	nop
  5c:	34 00 00 00 	nop

00000060 <_watchpoint_handler>:
  60:	34 00 00 00 	nop
  64:	34 00 00 00 	nop
  68:	34 00 00 00 	nop
  6c:	34 00 00 00 	nop
  70:	34 00 00 00 	nop
  74:	34 00 00 00 	nop
  78:	34 00 00 00 	nop
  7c:	34 00 00 00 	nop

00000080 <_dbuserror_handler>:
  80:	34 00 00 00 	nop
  84:	34 00 00 00 	nop
  88:	34 00 00 00 	nop
  8c:	34 00 00 00 	nop
  90:	34 00 00 00 	nop
  94:	34 00 00 00 	nop
  98:	34 00 00 00 	nop
  9c:	34 00 00 00 	nop

000000a0 <_divzero_handler>:
  a0:	34 00 00 00 	nop
  a4:	34 00 00 00 	nop
  a8:	34 00 00 00 	nop
  ac:	34 00 00 00 	nop
  b0:	34 00 00 00 	nop
  b4:	34 00 00 00 	nop
  b8:	34 00 00 00 	nop
  bc:	34 00 00 00 	nop

000000c0 <_interrupt_handler>:
  c0:	5b 9d 00 00 	sw (sp+0),ra
  c4:	f8 00 00 2b 	calli 170 <_save_all>
  c8:	90 40 08 00 	rcsr r1,IP
  cc:	f8 00 00 6e 	calli 284 <irq_handler>
  d0:	78 01 ff ff 	mvhi r1,0xffff
  d4:	38 21 ff ff 	ori r1,r1,0xffff
  d8:	d0 41 00 00 	wcsr IP,r1
  dc:	e0 00 00 38 	bi 1bc <_restore_all_and_eret>

000000e0 <_scall_handler>:
  e0:	34 00 00 00 	nop
  e4:	34 00 00 00 	nop
  e8:	34 00 00 00 	nop
  ec:	34 00 00 00 	nop
  f0:	34 00 00 00 	nop
  f4:	34 00 00 00 	nop
  f8:	34 00 00 00 	nop
  fc:	34 00 00 00 	nop

00000100 <_crt0>:
 100:	78 1c 00 00 	mvhi sp,0x0
 104:	3b 9c 0f fc 	ori sp,sp,0xffc
 108:	78 1a 00 00 	mvhi gp,0x0
 10c:	3b 5a 05 40 	ori gp,gp,0x540
 110:	78 01 00 00 	mvhi r1,0x0
 114:	38 21 05 38 	ori r1,r1,0x538
 118:	78 03 00 00 	mvhi r3,0x0
 11c:	38 63 05 bc 	ori r3,r3,0x5bc

00000120 <.clearBSS>:
 120:	44 23 00 04 	be r1,r3,130 <.callMain>
 124:	58 20 00 00 	sw (r1+0),r0
 128:	34 21 00 04 	addi r1,r1,4
 12c:	e3 ff ff fd 	bi 120 <.clearBSS>

00000130 <.callMain>:
 130:	34 01 00 00 	mvi r1,0
 134:	34 02 00 00 	mvi r2,0
 138:	34 03 00 00 	mvi r3,0
 13c:	f8 00 00 33 	calli 208 <main>

00000140 <irq_enable>:
 140:	34 01 00 01 	mvi r1,1
 144:	d0 01 00 00 	wcsr IE,r1
 148:	c3 a0 00 00 	ret

0000014c <irq_disable>:
 14c:	34 01 00 00 	mvi r1,0
 150:	d0 01 00 00 	wcsr IE,r1
 154:	c3 a0 00 00 	ret

00000158 <irq_set_mask>:
 158:	d0 21 00 00 	wcsr IM,r1
 15c:	c3 a0 00 00 	ret

00000160 <irq_get_mask>:
 160:	90 20 08 00 	rcsr r1,IM
 164:	c3 a0 00 00 	ret

00000168 <jump>:
 168:	c0 20 00 00 	b r1

0000016c <halt>:
 16c:	e0 00 00 00 	bi 16c <halt>

00000170 <_save_all>:
 170:	37 9c ff 80 	addi sp,sp,-128
 174:	5b 81 00 04 	sw (sp+4),r1
 178:	5b 82 00 08 	sw (sp+8),r2
 17c:	5b 83 00 0c 	sw (sp+12),r3
 180:	5b 84 00 10 	sw (sp+16),r4
 184:	5b 85 00 14 	sw (sp+20),r5
 188:	5b 86 00 18 	sw (sp+24),r6
 18c:	5b 87 00 1c 	sw (sp+28),r7
 190:	5b 88 00 20 	sw (sp+32),r8
 194:	5b 89 00 24 	sw (sp+36),r9
 198:	5b 8a 00 28 	sw (sp+40),r10
 19c:	5b 9e 00 78 	sw (sp+120),ea
 1a0:	5b 9f 00 7c 	sw (sp+124),ba
 1a4:	2b 81 00 80 	lw r1,(sp+128)
 1a8:	5b 81 00 74 	sw (sp+116),r1
 1ac:	bb 80 08 00 	mv r1,sp
 1b0:	34 21 00 80 	addi r1,r1,128
 1b4:	5b 81 00 70 	sw (sp+112),r1
 1b8:	c3 a0 00 00 	ret

000001bc <_restore_all_and_eret>:
 1bc:	2b 81 00 04 	lw r1,(sp+4)
 1c0:	2b 82 00 08 	lw r2,(sp+8)
 1c4:	2b 83 00 0c 	lw r3,(sp+12)
 1c8:	2b 84 00 10 	lw r4,(sp+16)
 1cc:	2b 85 00 14 	lw r5,(sp+20)
 1d0:	2b 86 00 18 	lw r6,(sp+24)
 1d4:	2b 87 00 1c 	lw r7,(sp+28)
 1d8:	2b 88 00 20 	lw r8,(sp+32)
 1dc:	2b 89 00 24 	lw r9,(sp+36)
 1e0:	2b 8a 00 28 	lw r10,(sp+40)
 1e4:	2b 9d 00 74 	lw ra,(sp+116)
 1e8:	2b 9e 00 78 	lw ea,(sp+120)
 1ec:	2b 9f 00 7c 	lw ba,(sp+124)
 1f0:	2b 9c 00 70 	lw sp,(sp+112)
 1f4:	c3 c0 00 00 	eret

000001f8 <get_sp>:
 1f8:	bb 80 08 00 	mv r1,sp
 1fc:	c3 a0 00 00 	ret

00000200 <get_gp>:
 200:	bb 40 08 00 	mv r1,gp
 204:	c3 a0 00 00 	ret

00000208 <main>:
//**************************************************************************************************
// Función principal del codigo - Inicialización de Perifericos
//**************************************************************************************************

int main()
{
 208:	37 9c ff f8 	addi sp,sp,-8
 20c:	5b 8b 00 08 	sw (sp+8),r11
 210:	5b 9d 00 04 	sw (sp+4),ra
    

//Inicializacion de perifericos


set_digpot(0x63); //100K  Ohms
 214:	34 01 00 63 	mvi r1,99
 218:	f8 00 00 bd 	calli 50c <set_digpot>
msleep(1000);
 21c:	34 01 03 e8 	mvi r1,1000
 220:	f8 00 00 7b 	calli 40c <msleep>
 224:	34 0b 00 0a 	mvi r11,10

for(i=0;i<10;i++)
{
set_digpot(0x89);
 228:	34 01 00 89 	mvi r1,137
 22c:	f8 00 00 b8 	calli 50c <set_digpot>
msleep(1000);
 230:	35 6b ff ff 	addi r11,r11,-1
 234:	34 01 03 e8 	mvi r1,1000
 238:	21 6b 00 ff 	andi r11,r11,0xff
 23c:	f8 00 00 74 	calli 40c <msleep>


set_digpot(0x63); //100K  Ohms
msleep(1000);

for(i=0;i<10;i++)
 240:	5d 60 ff fa 	bne r11,r0,228 <main+0x20>
msleep(1000);
}



}
 244:	2b 9d 00 04 	lw ra,(sp+4)
 248:	2b 8b 00 08 	lw r11,(sp+8)
 24c:	37 9c 00 08 	addi sp,sp,8
 250:	c3 a0 00 00 	ret

00000254 <isr_null>:
/***************************************************************************
 * IRQ handling
 */
void isr_null()
{
}
 254:	c3 a0 00 00 	ret

00000258 <tic_isr>:

uint32_t tic_msec;

void tic_isr()
{
	tic_msec++;
 258:	78 01 00 00 	mvhi r1,0x0
 25c:	38 21 05 b8 	ori r1,r1,0x5b8
 260:	28 23 00 00 	lw r3,(r1+0)
	timer0->tcr0     = TIMER_EN | TIMER_AR | TIMER_IRQEN;
 264:	78 02 00 00 	mvhi r2,0x0
 268:	38 42 05 24 	ori r2,r2,0x524
 26c:	28 42 00 00 	lw r2,(r2+0)

uint32_t tic_msec;

void tic_isr()
{
	tic_msec++;
 270:	34 63 00 01 	addi r3,r3,1
 274:	58 23 00 00 	sw (r1+0),r3
	timer0->tcr0     = TIMER_EN | TIMER_AR | TIMER_IRQEN;
 278:	34 01 00 0e 	mvi r1,14
 27c:	58 41 00 00 	sw (r2+0),r1
}
 280:	c3 a0 00 00 	ret

00000284 <irq_handler>:
void isr_null()
{
}

void irq_handler(uint32_t pending)
{
 284:	37 9c ff f0 	addi sp,sp,-16
 288:	5b 8b 00 10 	sw (sp+16),r11
 28c:	5b 8c 00 0c 	sw (sp+12),r12
 290:	5b 8d 00 08 	sw (sp+8),r13
 294:	5b 9d 00 04 	sw (sp+4),ra
 298:	78 0b 00 00 	mvhi r11,0x0
 29c:	39 6b 05 38 	ori r11,r11,0x538
 2a0:	b8 20 60 00 	mv r12,r1
 */
void isr_null()
{
}

void irq_handler(uint32_t pending)
 2a4:	35 6d 00 80 	addi r13,r11,128
 2a8:	e0 00 00 04 	bi 2b8 <irq_handler+0x34>
{
	int i;

	for(i=0; i<32; i++) {
		if (pending & 0x01) (*isr_table[i])();
 2ac:	35 6b 00 04 	addi r11,r11,4

void irq_handler(uint32_t pending)
{
	int i;

	for(i=0; i<32; i++) {
 2b0:	45 6d 00 08 	be r11,r13,2d0 <irq_handler+0x4c>
		if (pending & 0x01) (*isr_table[i])();
		pending >>= 1;
 2b4:	01 8c 00 01 	srui r12,r12,1
void irq_handler(uint32_t pending)
{
	int i;

	for(i=0; i<32; i++) {
		if (pending & 0x01) (*isr_table[i])();
 2b8:	21 81 00 01 	andi r1,r12,0x1
 2bc:	44 20 ff fc 	be r1,r0,2ac <irq_handler+0x28>
 2c0:	29 61 00 00 	lw r1,(r11+0)
 2c4:	35 6b 00 04 	addi r11,r11,4
 2c8:	d8 20 00 00 	call r1

void irq_handler(uint32_t pending)
{
	int i;

	for(i=0; i<32; i++) {
 2cc:	5d 6d ff fa 	bne r11,r13,2b4 <irq_handler+0x30>
		if (pending & 0x01) (*isr_table[i])();
		pending >>= 1;
	}
}
 2d0:	2b 9d 00 04 	lw ra,(sp+4)
 2d4:	2b 8b 00 10 	lw r11,(sp+16)
 2d8:	2b 8c 00 0c 	lw r12,(sp+12)
 2dc:	2b 8d 00 08 	lw r13,(sp+8)
 2e0:	37 9c 00 10 	addi sp,sp,16
 2e4:	c3 a0 00 00 	ret

000002e8 <isr_init>:

void isr_init()
{
 2e8:	78 01 00 00 	mvhi r1,0x0
 2ec:	78 02 00 00 	mvhi r2,0x0
 2f0:	38 21 05 38 	ori r1,r1,0x538
 2f4:	38 42 02 54 	ori r2,r2,0x254
		if (pending & 0x01) (*isr_table[i])();
		pending >>= 1;
	}
}

void isr_init()
 2f8:	34 23 00 80 	addi r3,r1,128
{
	int i;
	for(i=0; i<32; i++)
		isr_table[i] = &isr_null;
 2fc:	58 22 00 00 	sw (r1+0),r2
 300:	34 21 00 04 	addi r1,r1,4
}

void isr_init()
{
	int i;
	for(i=0; i<32; i++)
 304:	5c 23 ff fe 	bne r1,r3,2fc <isr_init+0x14>
		isr_table[i] = &isr_null;
}
 308:	c3 a0 00 00 	ret

0000030c <isr_register>:

void isr_register(int irq, isr_ptr_t isr)
{
	isr_table[irq] = isr;
 30c:	78 03 00 00 	mvhi r3,0x0
 310:	3c 21 00 02 	sli r1,r1,2
 314:	38 63 05 38 	ori r3,r3,0x538
 318:	b4 61 18 00 	add r3,r3,r1
 31c:	58 62 00 00 	sw (r3+0),r2
}
 320:	c3 a0 00 00 	ret

00000324 <isr_unregister>:

void isr_unregister(int irq)
{
	isr_table[irq] = &isr_null;
 324:	78 03 00 00 	mvhi r3,0x0
 328:	3c 21 00 02 	sli r1,r1,2
 32c:	38 63 05 38 	ori r3,r3,0x538
 330:	78 02 00 00 	mvhi r2,0x0
 334:	b4 61 18 00 	add r3,r3,r1
 338:	38 42 02 54 	ori r2,r2,0x254
 33c:	58 62 00 00 	sw (r3+0),r2
}
 340:	c3 a0 00 00 	ret

00000344 <gpio_init>:
// Estructura del periferico GPIO
//*************************************************************************

void gpio_init(uint32_t k)
{
	gpio0->dir=k; //todo lo que sea 0 es puerto lectura, 1 es puerto escritura o salida
 344:	78 02 00 00 	mvhi r2,0x0
 348:	38 42 05 28 	ori r2,r2,0x528
 34c:	28 42 00 00 	lw r2,(r2+0)
 350:	58 41 00 08 	sw (r2+8),r1
}
 354:	c3 a0 00 00 	ret

00000358 <gpio_read>:

uint32_t gpio_read()
{
	return gpio0->read;
 358:	78 01 00 00 	mvhi r1,0x0
 35c:	38 21 05 28 	ori r1,r1,0x528
 360:	28 21 00 00 	lw r1,(r1+0)
 364:	28 21 00 00 	lw r1,(r1+0)
}
 368:	c3 a0 00 00 	ret

0000036c <gpio_write>:

void gpio_write(uint32_t k)
{
	gpio0->write=k;
 36c:	78 02 00 00 	mvhi r2,0x0
 370:	38 42 05 28 	ori r2,r2,0x528
 374:	28 42 00 00 	lw r2,(r2+0)
 378:	58 41 00 04 	sw (r2+4),r1
}
 37c:	c3 a0 00 00 	ret

00000380 <set_pin>:


void set_pin(uint8_t value, uint8_t npin)
{
 380:	20 21 00 ff 	andi r1,r1,0xff
 384:	20 42 00 ff 	andi r2,r2,0xff
     if (value)
 388:	5c 20 00 09 	bne r1,r0,3ac <set_pin+0x2c>
		gpio0->write = gpio0->read | npin;
	else
		gpio0->write = gpio0->read & (~npin);
 38c:	78 01 00 00 	mvhi r1,0x0
 390:	38 21 05 28 	ori r1,r1,0x528
 394:	28 21 00 00 	lw r1,(r1+0)
 398:	a4 40 10 00 	not r2,r2
 39c:	28 23 00 00 	lw r3,(r1+0)
 3a0:	a0 43 10 00 	and r2,r2,r3
 3a4:	58 22 00 04 	sw (r1+4),r2
 3a8:	c3 a0 00 00 	ret


void set_pin(uint8_t value, uint8_t npin)
{
     if (value)
		gpio0->write = gpio0->read | npin;
 3ac:	78 01 00 00 	mvhi r1,0x0
 3b0:	38 21 05 28 	ori r1,r1,0x528
 3b4:	28 21 00 00 	lw r1,(r1+0)
 3b8:	28 23 00 00 	lw r3,(r1+0)
 3bc:	b8 43 10 00 	or r2,r2,r3
 3c0:	58 22 00 04 	sw (r1+4),r2
 3c4:	c3 a0 00 00 	ret

000003c8 <pin_inv>:
}

void pin_inv(uint8_t npin)
{
	uint32_t val;
	val = (~gpio0->read) & npin;
 3c8:	78 02 00 00 	mvhi r2,0x0
 3cc:	38 42 05 28 	ori r2,r2,0x528
 3d0:	28 42 00 00 	lw r2,(r2+0)
		gpio0->write = gpio0->read & (~npin);

}

void pin_inv(uint8_t npin)
{
 3d4:	20 21 00 ff 	andi r1,r1,0xff
	uint32_t val;
	val = (~gpio0->read) & npin;
 3d8:	28 43 00 00 	lw r3,(r2+0)
 3dc:	a4 60 18 00 	not r3,r3
}


void set_pin(uint8_t value, uint8_t npin)
{
     if (value)
 3e0:	a0 23 18 00 	and r3,r1,r3
 3e4:	5c 60 00 06 	bne r3,r0,3fc <pin_inv+0x34>
		gpio0->write = gpio0->read | npin;
	else
		gpio0->write = gpio0->read & (~npin);
 3e8:	28 43 00 00 	lw r3,(r2+0)
 3ec:	a4 20 08 00 	not r1,r1
 3f0:	a0 23 08 00 	and r1,r1,r3
 3f4:	58 41 00 04 	sw (r2+4),r1
 3f8:	c3 a0 00 00 	ret


void set_pin(uint8_t value, uint8_t npin)
{
     if (value)
		gpio0->write = gpio0->read | npin;
 3fc:	28 43 00 00 	lw r3,(r2+0)
 400:	b8 23 08 00 	or r1,r1,r3
 404:	58 41 00 04 	sw (r2+4),r1
 408:	c3 a0 00 00 	ret

0000040c <msleep>:
void msleep(uint32_t msec)
{
	uint32_t tcr;

	// Use timer0.1
	timer0->compare1 = (FCPU/1000)*msec;
 40c:	78 04 00 00 	mvhi r4,0x0
 410:	38 84 05 20 	ori r4,r4,0x520
 414:	28 83 00 00 	lw r3,(r4+0)
 418:	78 02 00 00 	mvhi r2,0x0
 41c:	38 42 05 24 	ori r2,r2,0x524
 420:	28 42 00 00 	lw r2,(r2+0)
 424:	88 23 08 00 	mul r1,r1,r3
 428:	58 41 00 10 	sw (r2+16),r1
	timer0->counter1 = 0;
 42c:	58 40 00 14 	sw (r2+20),r0
	timer0->tcr1 = TIMER_EN;
 430:	34 01 00 08 	mvi r1,8
 434:	58 41 00 0c 	sw (r2+12),r1

	do {
 		tcr = timer0->tcr1;
 438:	28 41 00 0c 	lw r1,(r2+12)
 	} while ( ! (tcr & TIMER_TRIG) );
 43c:	20 21 00 01 	andi r1,r1,0x1
 440:	44 20 ff fe 	be r1,r0,438 <msleep+0x2c>
}
 444:	c3 a0 00 00 	ret

00000448 <nsleep>:
void nsleep(uint32_t nsec)
{
	uint32_t tcr;

	// Use timer0.1
	timer0->compare1 = (FCPU/1000000)*nsec;
 448:	78 02 00 00 	mvhi r2,0x0
 44c:	38 42 05 24 	ori r2,r2,0x524
 450:	28 42 00 00 	lw r2,(r2+0)
 454:	08 21 00 64 	muli r1,r1,100
 458:	58 41 00 10 	sw (r2+16),r1
	timer0->counter1 = 0;
 45c:	58 40 00 14 	sw (r2+20),r0
	timer0->tcr1 = TIMER_EN;
 460:	34 01 00 08 	mvi r1,8
 464:	58 41 00 0c 	sw (r2+12),r1

	do {
		//halt();
 		tcr = timer0->tcr1;
 468:	28 41 00 0c 	lw r1,(r2+12)
 	} while ( ! (tcr & TIMER_TRIG) );
 46c:	20 21 00 01 	andi r1,r1,0x1
 470:	44 20 ff fe 	be r1,r0,468 <nsleep+0x20>
}
 474:	c3 a0 00 00 	ret

00000478 <tic_init>:
void tic_init()
{
	tic_msec = 0;

	// Setup timer0.0
	timer0->compare0 = (FCPU/10000);
 478:	78 01 00 00 	mvhi r1,0x0
 47c:	38 21 05 24 	ori r1,r1,0x524
 480:	28 23 00 00 	lw r3,(r1+0)
 484:	34 02 27 10 	mvi r2,10000
	timer0->tcr0     = TIMER_EN | TIMER_AR | TIMER_IRQEN;
}

void tic_init()
{
	tic_msec = 0;
 488:	78 01 00 00 	mvhi r1,0x0

	// Setup timer0.0
	timer0->compare0 = (FCPU/10000);
 48c:	58 62 00 04 	sw (r3+4),r2
	timer0->tcr0     = TIMER_EN | TIMER_AR | TIMER_IRQEN;
}

void tic_init()
{
	tic_msec = 0;
 490:	38 21 05 b8 	ori r1,r1,0x5b8

	// Setup timer0.0
	timer0->compare0 = (FCPU/10000);
	timer0->counter0 = 0;
 494:	58 60 00 08 	sw (r3+8),r0
	timer0->tcr0     = TIMER_EN | TIMER_AR | TIMER_IRQEN;
}

void tic_init()
{
	tic_msec = 0;
 498:	58 20 00 00 	sw (r1+0),r0
		isr_table[i] = &isr_null;
}

void isr_register(int irq, isr_ptr_t isr)
{
	isr_table[irq] = isr;
 49c:	78 02 00 00 	mvhi r2,0x0
 4a0:	78 01 00 00 	mvhi r1,0x0
	tic_msec = 0;

	// Setup timer0.0
	timer0->compare0 = (FCPU/10000);
	timer0->counter0 = 0;
	timer0->tcr0     = TIMER_EN | TIMER_AR | TIMER_IRQEN;
 4a4:	34 04 00 0e 	mvi r4,14
 4a8:	58 64 00 00 	sw (r3+0),r4
		isr_table[i] = &isr_null;
}

void isr_register(int irq, isr_ptr_t isr)
{
	isr_table[irq] = isr;
 4ac:	38 21 05 38 	ori r1,r1,0x538
 4b0:	38 42 02 58 	ori r2,r2,0x258
 4b4:	58 22 00 04 	sw (r1+4),r2
	timer0->compare0 = (FCPU/10000);
	timer0->counter0 = 0;
	timer0->tcr0     = TIMER_EN | TIMER_AR | TIMER_IRQEN;

	isr_register(1, &tic_isr);
}
 4b8:	c3 a0 00 00 	ret

000004bc <trigger_set0>:
//***************************************************************************
// Estructura del periferico TRIGGER 0 
//***************************************************************************
void trigger_set0(uint32_t st)
{
    trigger0->set_trig = st;
 4bc:	78 02 00 00 	mvhi r2,0x0
 4c0:	38 42 05 30 	ori r2,r2,0x530
 4c4:	28 42 00 00 	lw r2,(r2+0)
 4c8:	58 41 00 00 	sw (r2+0),r1
}
 4cc:	c3 a0 00 00 	ret

000004d0 <read_count0>:

uint32_t read_count0()
{
    return trigger0->c_out;
 4d0:	78 01 00 00 	mvhi r1,0x0
 4d4:	38 21 05 30 	ori r1,r1,0x530
 4d8:	28 21 00 00 	lw r1,(r1+0)
 4dc:	28 21 00 04 	lw r1,(r1+4)
}
 4e0:	c3 a0 00 00 	ret

000004e4 <trigger_set1>:
//***************************************************************************
// Estructura del periferico TRIGGER 1
//***************************************************************************
void trigger_set1(uint32_t st)
{
    trigger1->set_trig = st;
 4e4:	78 02 00 00 	mvhi r2,0x0
 4e8:	38 42 05 34 	ori r2,r2,0x534
 4ec:	28 42 00 00 	lw r2,(r2+0)
 4f0:	58 41 00 00 	sw (r2+0),r1
}
 4f4:	c3 a0 00 00 	ret

000004f8 <read_count1>:

uint32_t read_count1()
{
    return trigger1->c_out;
 4f8:	78 01 00 00 	mvhi r1,0x0
 4fc:	38 21 05 34 	ori r1,r1,0x534
 500:	28 21 00 00 	lw r1,(r1+0)
 504:	28 21 00 04 	lw r1,(r1+4)
}
 508:	c3 a0 00 00 	ret

0000050c <set_digpot>:
// Estructura del periferico DIGPOT
//***************************************************************************

void set_digpot(uint32_t dp)
{
    digpot0->set_digpot = dp;
 50c:	78 02 00 00 	mvhi r2,0x0
 510:	38 42 05 2c 	ori r2,r2,0x52c
 514:	28 42 00 00 	lw r2,(r2+0)
 518:	58 41 00 00 	sw (r2+0),r1

}
 51c:	c3 a0 00 00 	ret
